; Function Attrs: nounwind uwtable
define hidden zeroext i1 @SDL_AddVulkanRenderSemaphores_REAL(ptr noundef %0, i32 noundef %1, i64 noundef %2, i64 noundef %3) local_unnamed_addr #0 {
  %5 = tail call zeroext i1 @SDL_ObjectValid(ptr noundef %0, i32 noundef 2) #15
  br i1 %5, label %8, label %6

6:                                                ; preds = %4
  %7 = tail call zeroext i1 (ptr, ...) @SDL_SetError_REAL(ptr noundef nonnull @.str.2, ptr noundef nonnull @.str.5) #15
  br label %21

8:                                                ; preds = %4
  %9 = getelementptr inbounds nuw i8, ptr %0, i64 688
  %10 = load i8, ptr %9, align 8, !range !3, !noundef !4
  %11 = trunc nuw i8 %10 to i1
  br i1 %11, label %12, label %14

12:                                               ; preds = %8
  %13 = tail call zeroext i1 (ptr, ...) @SDL_SetError_REAL(ptr noundef nonnull @.str.29) #15
  br label %21

14:                                               ; preds = %8
  %15 = getelementptr inbounds nuw i8, ptr %0, i64 216
  %16 = load ptr, ptr %15, align 8
  %.not = icmp eq ptr %16, null
  br i1 %.not, label %17, label %19

17:                                               ; preds = %14
  %18 = tail call zeroext i1 (ptr, ...) @SDL_SetError_REAL(ptr noundef nonnull @.str.54) #15
  br label %21

19:                                               ; preds = %14
  %20 = tail call zeroext i1 %16(ptr noundef nonnull %0, i32 noundef %1, i64 noundef %2, i64 noundef %3) #15
  br label %21

21:                                               ; preds = %19, %17, %12, %6
  %.0 = phi i1 [ false, %12 ], [ %20, %19 ], [ %18, %17 ], [ false, %6 ]
  ret i1 %.0
}